; Function Attrs: nounwind uwtable
define ptr @l___private_Std_Tactic_BVDecide_Bitblast_BVExpr_Circuit_Lemmas_Expr_0__Std_Tactic_BVDecide_BVExpr_Cache_get_x3f_match__1_splitter___rarg(ptr noundef %0, ptr noundef %1, ptr noundef %2) #0 {
  %4 = ptrtoint ptr %0 to i64
  %5 = and i64 %4, 1
  %.not.i18 = icmp eq i64 %5, 0
  br i1 %.not.i18, label %9, label %6

6:                                                ; preds = %3
  %7 = lshr i64 %4, 1
  %8 = trunc i64 %7 to i32
  br label %lean_obj_tag.exit

9:                                                ; preds = %3
  %10 = getelementptr i8, ptr %0, i64 4
  %.val.i = load i32, ptr %10, align 4
  %11 = lshr i32 %.val.i, 24
  br label %lean_obj_tag.exit

lean_obj_tag.exit:                                ; preds = %6, %9
  %.0.i = phi i32 [ %8, %6 ], [ %11, %9 ]
  %12 = icmp eq i32 %.0.i, 0
  br i1 %12, label %13, label %24

13:                                               ; preds = %lean_obj_tag.exit
  %14 = ptrtoint ptr %1 to i64
  %15 = and i64 %14, 1
  %.not23 = icmp eq i64 %15, 0
  br i1 %.not23, label %16, label %lean_dec.exit

16:                                               ; preds = %13
  %17 = load i32, ptr %1, align 4, !tbaa !4
  %18 = icmp sgt i32 %17, 1
  br i1 %18, label %19, label %21, !prof !9

19:                                               ; preds = %16
  %20 = add nsw i32 %17, -1
  store i32 %20, ptr %1, align 4, !tbaa !4
  br label %lean_dec.exit

21:                                               ; preds = %16
  %.not.i16 = icmp eq i32 %17, 0
  br i1 %.not.i16, label %lean_dec.exit, label %22

22:                                               ; preds = %21
  tail call void @lean_dec_ref_cold(ptr noundef nonnull %1) #4
  br label %lean_dec.exit

lean_dec.exit:                                    ; preds = %22, %21, %19, %13
  %23 = tail call ptr @lean_apply_1(ptr noundef %2, ptr noundef nonnull inttoptr (i64 1 to ptr)) #4
  br label %52

24:                                               ; preds = %lean_obj_tag.exit
  %25 = ptrtoint ptr %2 to i64
  %26 = and i64 %25, 1
  %.not = icmp eq i64 %26, 0
  br i1 %.not, label %27, label %lean_dec.exit12

27:                                               ; preds = %24
  %28 = load i32, ptr %2, align 4, !tbaa !4
  %29 = icmp sgt i32 %28, 1
  br i1 %29, label %30, label %32, !prof !9

30:                                               ; preds = %27
  %31 = add nsw i32 %28, -1
  store i32 %31, ptr %2, align 4, !tbaa !4
  br label %lean_dec.exit12

32:                                               ; preds = %27
  %.not.i14 = icmp eq i32 %28, 0
  br i1 %.not.i14, label %lean_dec.exit12, label %33

33:                                               ; preds = %32
  tail call void @lean_dec_ref_cold(ptr noundef nonnull %2) #4
  br label %lean_dec.exit12

lean_dec.exit12:                                  ; preds = %33, %32, %30, %24
  %34 = getelementptr inbounds nuw i8, ptr %0, i64 8
  %35 = load ptr, ptr %34, align 8, !tbaa !10
  %36 = ptrtoint ptr %35 to i64
  %37 = and i64 %36, 1
  %.not21 = icmp eq i64 %37, 0
  br i1 %.not21, label %38, label %lean_inc.exit

38:                                               ; preds = %lean_dec.exit12
  %.val.i19 = load i32, ptr %35, align 4, !tbaa !4
  %39 = icmp sgt i32 %.val.i19, 0
  br i1 %39, label %40, label %42, !prof !9

40:                                               ; preds = %38
  %41 = add nuw i32 %.val.i19, 1
  store i32 %41, ptr %35, align 4, !tbaa !4
  br label %lean_inc.exit

42:                                               ; preds = %38
  %.not.i20 = icmp eq i32 %.val.i19, 0
  br i1 %.not.i20, label %lean_inc.exit, label %43

43:                                               ; preds = %42
  tail call void @lean_inc_ref_cold(ptr noundef nonnull %35) #4
  br label %lean_inc.exit

lean_inc.exit:                                    ; preds = %43, %42, %40, %lean_dec.exit12
  br i1 %.not.i18, label %44, label %lean_dec.exit13

44:                                               ; preds = %lean_inc.exit
  %45 = load i32, ptr %0, align 4, !tbaa !4
  %46 = icmp sgt i32 %45, 1
  br i1 %46, label %47, label %49, !prof !9

47:                                               ; preds = %44
  %48 = add nsw i32 %45, -1
  store i32 %48, ptr %0, align 4, !tbaa !4
  br label %lean_dec.exit13

49:                                               ; preds = %44
  %.not.i = icmp eq i32 %45, 0
  br i1 %.not.i, label %lean_dec.exit13, label %50

50:                                               ; preds = %49
  tail call void @lean_dec_ref_cold(ptr noundef nonnull %0) #4
  br label %lean_dec.exit13

lean_dec.exit13:                                  ; preds = %50, %49, %47, %lean_inc.exit
  %51 = tail call ptr @lean_apply_2(ptr noundef %1, ptr noundef %35, ptr noundef nonnull inttoptr (i64 1 to ptr)) #4
  br label %52

52:                                               ; preds = %lean_dec.exit13, %lean_dec.exit
  %.0 = phi ptr [ %23, %lean_dec.exit ], [ %51, %lean_dec.exit13 ]
  ret ptr %.0
}